target datalayout = "e-m:e-p270:32:32-p271:32:32-p272:64:64-i64:64-i128:128-f80:128-n8:16:32:64-S128"
target triple = "x86_64-pc-linux-gnu"

%struct.b2Vec2 = type { float, float }
%struct.b2AtomicInt = type { i32 }
%struct.b2ConstraintGraph = type { [12 x %struct.b2GraphColor] }
%struct.b2GraphColor = type { %struct.b2BitSet, %struct.b2ContactSimArray, %struct.b2JointSimArray, %union.anon }
%struct.b2ContactSimArray = type { ptr, i32, i32 }
%struct.b2JointSimArray = type { ptr, i32, i32 }
%union.anon = type { ptr }
%struct.b2BitSet = type { ptr, i32, i32 }
%struct.b2StepContext = type { float, float, float, float, i32, %struct.b2Softness, %struct.b2Softness, %struct.b2Softness, float, float, ptr, ptr, ptr, ptr, ptr, i32, ptr, %struct.b2AtomicInt, ptr, ptr, ptr, i32, i32, ptr, i32, i8, [64 x i8], %struct.b2AtomicU32, [64 x i8] }
%struct.b2Softness = type { float, float, float }
%struct.b2AtomicU32 = type { i32 }
%struct.b2JointSim = type { i32, i32, i32, i32, %struct.b2Vec2, %struct.b2Vec2, float, float, float, float, %union.anon.0 }
%union.anon.0 = type { %struct.b2PrismaticJoint }
%struct.b2PrismaticJoint = type { %struct.b2Vec2, %struct.b2Vec2, float, float, float, float, float, float, float, float, float, float, float, i32, i32, %struct.b2Vec2, %struct.b2Vec2, %struct.b2Vec2, %struct.b2Vec2, float, float, %struct.b2Softness, i8, i8, i8 }

; Function Attrs: nounwind uwtable
define internal void @b2WarmStartJointsTask(i32 noundef %0, i32 noundef %1, ptr noundef %2, i32 noundef %3) #4 {
  %5 = alloca i32, align 4
  %6 = alloca i32, align 4
  %7 = alloca ptr, align 8
  %8 = alloca i32, align 4
  %9 = alloca ptr, align 8
  %10 = alloca ptr, align 8
  %11 = alloca i32, align 4
  %12 = alloca ptr, align 8
  store i32 %0, ptr %5, align 4, !tbaa !78
  store i32 %1, ptr %6, align 4, !tbaa !78
  store ptr %2, ptr %7, align 8, !tbaa !8
  store i32 %3, ptr %8, align 4, !tbaa !78
  call void @llvm.lifetime.start.p0(i64 8, ptr %9) #10
  %13 = load ptr, ptr %7, align 8, !tbaa !8
  %14 = getelementptr inbounds nuw %struct.b2StepContext, ptr %13, i32 0, i32 11
  %15 = load ptr, ptr %14, align 8, !tbaa !146
  %16 = getelementptr inbounds nuw %struct.b2ConstraintGraph, ptr %15, i32 0, i32 0
  %17 = getelementptr inbounds [12 x %struct.b2GraphColor], ptr %16, i64 0, i64 0
  %18 = load i32, ptr %8, align 4, !tbaa !78
  %19 = sext i32 %18 to i64
  %20 = getelementptr inbounds %struct.b2GraphColor, ptr %17, i64 %19
  store ptr %20, ptr %9, align 8, !tbaa !93
  call void @llvm.lifetime.start.p0(i64 8, ptr %10) #10
  %21 = load ptr, ptr %9, align 8, !tbaa !93
  %22 = getelementptr inbounds nuw %struct.b2GraphColor, ptr %21, i32 0, i32 2
  %23 = getelementptr inbounds nuw %struct.b2JointSimArray, ptr %22, i32 0, i32 0
  %24 = load ptr, ptr %23, align 8, !tbaa !116
  store ptr %24, ptr %10, align 8, !tbaa !117
  call void @llvm.lifetime.start.p0(i64 4, ptr %11) #10
  %25 = load i32, ptr %5, align 4, !tbaa !78
  store i32 %25, ptr %11, align 4, !tbaa !78
  br label %26

26:                                               ; preds = %38, %4
  %27 = load i32, ptr %11, align 4, !tbaa !78
  %28 = load i32, ptr %6, align 4, !tbaa !78
  %29 = icmp slt i32 %27, %28
  br i1 %29, label %31, label %30

30:                                               ; preds = %26
  call void @llvm.lifetime.end.p0(i64 4, ptr %11) #10
  br label %41

31:                                               ; preds = %26
  call void @llvm.lifetime.start.p0(i64 8, ptr %12) #10
  %32 = load ptr, ptr %10, align 8, !tbaa !117
  %33 = load i32, ptr %11, align 4, !tbaa !78
  %34 = sext i32 %33 to i64
  %35 = getelementptr inbounds %struct.b2JointSim, ptr %32, i64 %34
  store ptr %35, ptr %12, align 8, !tbaa !117
  %36 = load ptr, ptr %12, align 8, !tbaa !117
  %37 = load ptr, ptr %7, align 8, !tbaa !8
  call void @b2WarmStartJoint(ptr noundef %36, ptr noundef %37)
  call void @llvm.lifetime.end.p0(i64 8, ptr %12) #10
  br label %38

38:                                               ; preds = %31
  %39 = load i32, ptr %11, align 4, !tbaa !78
  %40 = add nsw i32 %39, 1
  store i32 %40, ptr %11, align 4, !tbaa !78
  br label %26, !llvm.loop !337

41:                                               ; preds = %30
  call void @llvm.lifetime.end.p0(i64 8, ptr %10) #10
  call void @llvm.lifetime.end.p0(i64 8, ptr %9) #10
  ret void
}