; Function Attrs: nounwind uwtable
define internal fastcc void @b2WarmStartJointsTask(i32 noundef %0, i32 noundef %1, ptr noundef %2, i32 noundef %3) unnamed_addr #3 {
  %5 = getelementptr inbounds nuw i8, ptr %2, i64 72
  %6 = load ptr, ptr %5, align 8, !tbaa !132
  %7 = sext i32 %3 to i64
  %8 = getelementptr inbounds %struct.b2GraphColor, ptr %6, i64 %7, i32 2
  %9 = load ptr, ptr %8, align 8, !tbaa !106
  %10 = icmp slt i32 %0, %1
  br i1 %10, label %.lr.ph.preheader, label %._crit_edge

.lr.ph.preheader:                                 ; preds = %4
  %11 = sext i32 %0 to i64
  br label %.lr.ph

._crit_edge:                                      ; preds = %.lr.ph, %4
  ret void

.lr.ph:                                           ; preds = %.lr.ph.preheader, %.lr.ph
  %indvars.iv = phi i64 [ %11, %.lr.ph.preheader ], [ %indvars.iv.next, %.lr.ph ]
  %12 = getelementptr inbounds %struct.b2JointSim, ptr %9, i64 %indvars.iv
  tail call void @b2WarmStartJoint(ptr noundef %12, ptr noundef %2) #8
  %indvars.iv.next = add nsw i64 %indvars.iv, 1
  %lftr.wideiv = trunc i64 %indvars.iv.next to i32
  %exitcond.not = icmp eq i32 %1, %lftr.wideiv
  br i1 %exitcond.not, label %._crit_edge, label %.lr.ph, !llvm.loop !286
}